; Function Attrs: mustprogress uwtable
define void @_ZN32pxrInternal_v0_24__pxrReserved__11HdSelection8AddRprimERKNS0_13HighlightModeERKNS_7SdfPathE(ptr noundef nonnull align 8 dereferenceable(144) %0, ptr nocapture noundef nonnull readonly align 4 dereferenceable(4) %1, ptr noundef nonnull align 4 dereferenceable(8) %2) local_unnamed_addr #2 align 2 {
  %4 = alloca %"class.pxrInternal_v0_24__pxrReserved__::TfCallContext", align 8
  %5 = load i32, ptr %1, align 4
  %6 = icmp slt i32 %5, 2
  br i1 %6, label %.critedge, label %7

7:                                                ; preds = %3
  store ptr @.str, ptr %4, align 8
  %8 = getelementptr inbounds nuw i8, ptr %4, i64 8
  store ptr @__func__._ZN32pxrInternal_v0_24__pxrReserved__11HdSelection8AddRprimERKNS0_13HighlightModeERKNS_7SdfPathE, ptr %8, align 8
  %9 = getelementptr inbounds nuw i8, ptr %4, i64 16
  store i64 22, ptr %9, align 8
  %10 = getelementptr inbounds nuw i8, ptr %4, i64 24
  store ptr @__PRETTY_FUNCTION__._ZN32pxrInternal_v0_24__pxrReserved__11HdSelection8AddRprimERKNS0_13HighlightModeERKNS_7SdfPathE, ptr %10, align 8
  %11 = getelementptr inbounds nuw i8, ptr %4, i64 32
  store i8 0, ptr %11, align 8
  %12 = call noundef zeroext i1 @_ZN32pxrInternal_v0_24__pxrReserved__21Tf_FailedVerifyHelperERKNS_13TfCallContextEPKcS4_(ptr noundef nonnull align 8 dereferenceable(33) %4, ptr noundef nonnull @.str.1, ptr noundef null)
  br i1 %12, label %..critedge_crit_edge, label %26

..critedge_crit_edge:                             ; preds = %7
  %.pre = load i32, ptr %1, align 4
  br label %.critedge

.critedge:                                        ; preds = %..critedge_crit_edge, %3
  %13 = phi i32 [ %.pre, %..critedge_crit_edge ], [ %5, %3 ]
  %14 = getelementptr inbounds nuw i8, ptr %0, i64 8
  %15 = zext i32 %13 to i64
  %16 = getelementptr inbounds [2 x %"class.std::unordered_map"], ptr %14, i64 0, i64 %15
  %17 = call noundef nonnull align 8 dereferenceable(128) ptr @_ZNSt8__detail9_Map_baseIN32pxrInternal_v0_24__pxrReserved__7SdfPathESt4pairIKS2_NS1_11HdSelection18PrimSelectionStateEESaIS7_ENS_10_Select1stESt8equal_toIS2_ENS2_4HashENS_18_Mod_range_hashingENS_20_Default_ranged_hashENS_20_Prime_rehash_policyENS_17_Hashtable_traitsILb1ELb0ELb1EEELb1EEixERS4_(ptr noundef nonnull align 1 dereferenceable(1) %16, ptr noundef nonnull align 4 dereferenceable(8) %2)
  store i8 1, ptr %17, align 8
  %18 = load atomic i32, ptr getelementptr inbounds (i8, ptr @_ZN32pxrInternal_v0_24__pxrReserved__7TfDebug5_DataINS_26HD_BPRIM_ADDED__DebugCodesEE5nodesE, i64 112) seq_cst, align 16
  %19 = icmp eq i32 %18, 0
  br i1 %19, label %20, label %_ZN32pxrInternal_v0_24__pxrReserved__7TfDebug9IsEnabledINS_26HD_BPRIM_ADDED__DebugCodesEEEbT_.exit

20:                                               ; preds = %.critedge
  call void @_ZN32pxrInternal_v0_24__pxrReserved__7TfDebug15_InitializeNodeERNS0_5_NodeEPKc(ptr noundef nonnull align 4 dereferenceable(4) getelementptr inbounds (i8, ptr @_ZN32pxrInternal_v0_24__pxrReserved__7TfDebug5_DataINS_26HD_BPRIM_ADDED__DebugCodesEE5nodesE, i64 112), ptr noundef nonnull @.str.39)
  %21 = load atomic i32, ptr getelementptr inbounds (i8, ptr @_ZN32pxrInternal_v0_24__pxrReserved__7TfDebug5_DataINS_26HD_BPRIM_ADDED__DebugCodesEE5nodesE, i64 112) seq_cst, align 16
  br label %_ZN32pxrInternal_v0_24__pxrReserved__7TfDebug9IsEnabledINS_26HD_BPRIM_ADDED__DebugCodesEEEbT_.exit

_ZN32pxrInternal_v0_24__pxrReserved__7TfDebug9IsEnabledINS_26HD_BPRIM_ADDED__DebugCodesEEEbT_.exit: ; preds = %.critedge, %20
  %.0.i = phi i32 [ %21, %20 ], [ %18, %.critedge ]
  %22 = icmp eq i32 %.0.i, 2
  br i1 %22, label %23, label %26

23:                                               ; preds = %_ZN32pxrInternal_v0_24__pxrReserved__7TfDebug9IsEnabledINS_26HD_BPRIM_ADDED__DebugCodesEEEbT_.exit
  %24 = call noundef ptr @_ZNK32pxrInternal_v0_24__pxrReserved__7SdfPath7GetTextEv(ptr noundef nonnull align 4 dereferenceable(8) %2)
  %25 = load i32, ptr %1, align 4
  call void (ptr, ...) @_ZN32pxrInternal_v0_24__pxrReserved__7TfDebug6Helper3MsgEPKcz(ptr noundef nonnull @.str.2, ptr noundef %24, i32 noundef %25)
  br label %26

26:                                               ; preds = %_ZN32pxrInternal_v0_24__pxrReserved__7TfDebug9IsEnabledINS_26HD_BPRIM_ADDED__DebugCodesEEEbT_.exit, %7, %23
  ret void
}